target datalayout = "e-m:e-p270:32:32-p271:32:32-p272:64:64-i64:64-i128:128-f80:128-n8:16:32:64-S128"
target triple = "x86_64-pc-linux-gnu"

%"class.llvm::DiagnosticInfo.base" = type <{ ptr, i32, i8 }>
%"class.llvm::DiagnosticLocation" = type { ptr, i32, i32 }
%"class.llvm::DiagnosticInfoResourceLimit" = type { %"class.llvm::DiagnosticInfoWithLocationBase", ptr, ptr, i64, i64 }
%"class.llvm::DiagnosticInfoWithLocationBase" = type { %"class.llvm::DiagnosticInfo.base", ptr, %"class.llvm::DiagnosticLocation" }
%"class.std::__cxx11::basic_string" = type { %"struct.std::__cxx11::basic_string<char>::_Alloc_hider", i64, %union.anon.12 }
%"struct.std::__cxx11::basic_string<char>::_Alloc_hider" = type { ptr }
%union.anon.12 = type { i64, [8 x i8] }

@.str.3 = private unnamed_addr constant [3 x i8] c": \00", align 1
@.str.4 = private unnamed_addr constant [3 x i8] c" (\00", align 1
@.str.5 = private unnamed_addr constant [18 x i8] c") exceeds limit (\00", align 1
@.str.6 = private unnamed_addr constant [16 x i8] c") in function '\00", align 1

; Function Attrs: mustprogress nounwind uwtable
define linkonce_odr hidden noundef nonnull align 8 dereferenceable(136) ptr @_ZNK4llvm27DiagnosticInfoResourceLimit11getFunctionEv(ptr noundef nonnull align 8 dereferenceable(72) %0) #0 comdat align 2 {
  %2 = alloca ptr, align 8
  store ptr %0, ptr %2, align 8
  %3 = load ptr, ptr %2, align 8
  %4 = getelementptr inbounds nuw %"class.llvm::DiagnosticInfoResourceLimit", ptr %3, i32 0, i32 1
  %5 = load ptr, ptr %4, align 8
  ret ptr %5
}

; Function Attrs: mustprogress nounwind uwtable
define linkonce_odr hidden noundef i64 @_ZNK4llvm27DiagnosticInfoResourceLimit16getResourceLimitEv(ptr noundef nonnull align 8 dereferenceable(72) %0) #0 comdat align 2 {
  %2 = alloca ptr, align 8
  store ptr %0, ptr %2, align 8
  %3 = load ptr, ptr %2, align 8
  %4 = getelementptr inbounds nuw %"class.llvm::DiagnosticInfoResourceLimit", ptr %3, i32 0, i32 4
  %5 = load i64, ptr %4, align 8
  ret i64 %5
}

; Function Attrs: mustprogress nounwind uwtable
define linkonce_odr hidden noundef i64 @_ZNK4llvm27DiagnosticInfoResourceLimit15getResourceSizeEv(ptr noundef nonnull align 8 dereferenceable(72) %0) #0 comdat align 2 {
  %2 = alloca ptr, align 8
  store ptr %0, ptr %2, align 8
  %3 = load ptr, ptr %2, align 8
  %4 = getelementptr inbounds nuw %"class.llvm::DiagnosticInfoResourceLimit", ptr %3, i32 0, i32 3
  %5 = load i64, ptr %4, align 8
  ret i64 %5
}

; Function Attrs: mustprogress nounwind uwtable
define linkonce_odr hidden noundef ptr @_ZNK4llvm27DiagnosticInfoResourceLimit15getResourceNameEv(ptr noundef nonnull align 8 dereferenceable(72) %0) #0 comdat align 2 {
  %2 = alloca ptr, align 8
  store ptr %0, ptr %2, align 8
  %3 = load ptr, ptr %2, align 8
  %4 = getelementptr inbounds nuw %"class.llvm::DiagnosticInfoResourceLimit", ptr %3, i32 0, i32 2
  %5 = load ptr, ptr %4, align 8
  ret ptr %5
}

; Function Attrs: mustprogress nounwind uwtable
define dso_local void @_ZNK4llvm27DiagnosticInfoResourceLimit5printERNS_17DiagnosticPrinterE(ptr noundef nonnull align 8 dereferenceable(72) %0, ptr noundef nonnull align 8 dereferenceable(8) %1) unnamed_addr #0 align 2 {
  %3 = alloca ptr, align 8
  %4 = alloca ptr, align 8
  %5 = alloca %"class.std::__cxx11::basic_string", align 8
  store ptr %0, ptr %3, align 8
  store ptr %1, ptr %4, align 8
  %6 = load ptr, ptr %3, align 8
  %7 = load ptr, ptr %4, align 8
  call void @_ZNK4llvm30DiagnosticInfoWithLocationBase14getLocationStrB5cxx11Ev(ptr dead_on_unwind writable sret(%"class.std::__cxx11::basic_string") align 8 %5, ptr noundef nonnull align 8 dereferenceable(40) %6)
  %8 = load ptr, ptr %7, align 8
  %9 = getelementptr inbounds ptr, ptr %8, i64 7
  %10 = load ptr, ptr %9, align 8
  %11 = call noundef nonnull align 8 dereferenceable(8) ptr %10(ptr noundef nonnull align 8 dereferenceable(8) %7, ptr noundef nonnull align 8 dereferenceable(32) %5)
  %12 = load ptr, ptr %11, align 8
  %13 = getelementptr inbounds ptr, ptr %12, i64 6
  %14 = load ptr, ptr %13, align 8
  %15 = call noundef nonnull align 8 dereferenceable(8) ptr %14(ptr noundef nonnull align 8 dereferenceable(8) %11, ptr noundef @.str.3)
  %16 = call noundef ptr @_ZNK4llvm27DiagnosticInfoResourceLimit15getResourceNameEv(ptr noundef nonnull align 8 dereferenceable(72) %6)
  %17 = load ptr, ptr %15, align 8
  %18 = getelementptr inbounds ptr, ptr %17, i64 6
  %19 = load ptr, ptr %18, align 8
  %20 = call noundef nonnull align 8 dereferenceable(8) ptr %19(ptr noundef nonnull align 8 dereferenceable(8) %15, ptr noundef %16)
  %21 = load ptr, ptr %20, align 8
  %22 = getelementptr inbounds ptr, ptr %21, i64 6
  %23 = load ptr, ptr %22, align 8
  %24 = call noundef nonnull align 8 dereferenceable(8) ptr %23(ptr noundef nonnull align 8 dereferenceable(8) %20, ptr noundef @.str.4)
  %25 = call noundef i64 @_ZNK4llvm27DiagnosticInfoResourceLimit15getResourceSizeEv(ptr noundef nonnull align 8 dereferenceable(72) %6)
  %26 = load ptr, ptr %24, align 8
  %27 = getelementptr inbounds ptr, ptr %26, i64 8
  %28 = load ptr, ptr %27, align 8
  %29 = call noundef nonnull align 8 dereferenceable(8) ptr %28(ptr noundef nonnull align 8 dereferenceable(8) %24, i64 noundef %25)
  %30 = load ptr, ptr %29, align 8
  %31 = getelementptr inbounds ptr, ptr %30, i64 6
  %32 = load ptr, ptr %31, align 8
  %33 = call noundef nonnull align 8 dereferenceable(8) ptr %32(ptr noundef nonnull align 8 dereferenceable(8) %29, ptr noundef @.str.5)
  %34 = call noundef i64 @_ZNK4llvm27DiagnosticInfoResourceLimit16getResourceLimitEv(ptr noundef nonnull align 8 dereferenceable(72) %6)
  %35 = load ptr, ptr %33, align 8
  %36 = getelementptr inbounds ptr, ptr %35, i64 8
  %37 = load ptr, ptr %36, align 8
  %38 = call noundef nonnull align 8 dereferenceable(8) ptr %37(ptr noundef nonnull align 8 dereferenceable(8) %33, i64 noundef %34)
  %39 = load ptr, ptr %38, align 8
  %40 = getelementptr inbounds ptr, ptr %39, i64 6
  %41 = load ptr, ptr %40, align 8
  %42 = call noundef nonnull align 8 dereferenceable(8) ptr %41(ptr noundef nonnull align 8 dereferenceable(8) %38, ptr noundef @.str.6)
  %43 = call noundef nonnull align 8 dereferenceable(136) ptr @_ZNK4llvm27DiagnosticInfoResourceLimit11getFunctionEv(ptr noundef nonnull align 8 dereferenceable(72) %6)
  %44 = load ptr, ptr %42, align 8
  %45 = getelementptr inbounds ptr, ptr %44, i64 17
  %46 = load ptr, ptr %45, align 8
  %47 = call noundef nonnull align 8 dereferenceable(8) ptr %46(ptr noundef nonnull align 8 dereferenceable(8) %42, ptr noundef nonnull align 8 dereferenceable(24) %43)
  %48 = load ptr, ptr %47, align 8
  %49 = getelementptr inbounds ptr, ptr %48, i64 2
  %50 = load ptr, ptr %49, align 8
  %51 = call noundef nonnull align 8 dereferenceable(8) ptr %50(ptr noundef nonnull align 8 dereferenceable(8) %47, i8 noundef signext 39)
  call void @_ZNSt7__cxx1112basic_stringIcSt11char_traitsIcESaIcEED1Ev(ptr noundef nonnull align 8 dereferenceable(32) %5) #9
  ret void
}