; Function Attrs: mustprogress nounwind uwtable
define dso_local void @_ZNK4llvm27DiagnosticInfoResourceLimit5printERNS_17DiagnosticPrinterE(ptr noundef nonnull readonly align 8 captures(none) dereferenceable(72) %0, ptr noundef nonnull align 8 dereferenceable(8) %1) unnamed_addr #1 align 2 {
  %3 = alloca %"class.std::__cxx11::basic_string", align 8
  call void @_ZNK4llvm30DiagnosticInfoWithLocationBase14getLocationStrB5cxx11Ev(ptr dead_on_unwind nonnull writable sret(%"class.std::__cxx11::basic_string") align 8 %3, ptr noundef nonnull align 8 dereferenceable(40) %0)
  %4 = load ptr, ptr %1, align 8
  %5 = getelementptr inbounds nuw i8, ptr %4, i64 56
  %6 = load ptr, ptr %5, align 8
  %7 = call noundef nonnull align 8 dereferenceable(8) ptr %6(ptr noundef nonnull align 8 dereferenceable(8) %1, ptr noundef nonnull align 8 dereferenceable(32) %3) #16
  %8 = load ptr, ptr %7, align 8
  %9 = getelementptr inbounds nuw i8, ptr %8, i64 48
  %10 = load ptr, ptr %9, align 8
  %11 = call noundef nonnull align 8 dereferenceable(8) ptr %10(ptr noundef nonnull align 8 dereferenceable(8) %7, ptr noundef nonnull @.str.3) #16
  %12 = getelementptr inbounds nuw i8, ptr %0, i64 48
  %13 = load ptr, ptr %12, align 8
  %14 = load ptr, ptr %11, align 8
  %15 = getelementptr inbounds nuw i8, ptr %14, i64 48
  %16 = load ptr, ptr %15, align 8
  %17 = call noundef nonnull align 8 dereferenceable(8) ptr %16(ptr noundef nonnull align 8 dereferenceable(8) %11, ptr noundef %13) #16
  %18 = load ptr, ptr %17, align 8
  %19 = getelementptr inbounds nuw i8, ptr %18, i64 48
  %20 = load ptr, ptr %19, align 8
  %21 = call noundef nonnull align 8 dereferenceable(8) ptr %20(ptr noundef nonnull align 8 dereferenceable(8) %17, ptr noundef nonnull @.str.4) #16
  %22 = getelementptr inbounds nuw i8, ptr %0, i64 56
  %23 = load i64, ptr %22, align 8
  %24 = load ptr, ptr %21, align 8
  %25 = getelementptr inbounds nuw i8, ptr %24, i64 64
  %26 = load ptr, ptr %25, align 8
  %27 = call noundef nonnull align 8 dereferenceable(8) ptr %26(ptr noundef nonnull align 8 dereferenceable(8) %21, i64 noundef %23) #16
  %28 = load ptr, ptr %27, align 8
  %29 = getelementptr inbounds nuw i8, ptr %28, i64 48
  %30 = load ptr, ptr %29, align 8
  %31 = call noundef nonnull align 8 dereferenceable(8) ptr %30(ptr noundef nonnull align 8 dereferenceable(8) %27, ptr noundef nonnull @.str.5) #16
  %32 = getelementptr inbounds nuw i8, ptr %0, i64 64
  %33 = load i64, ptr %32, align 8
  %34 = load ptr, ptr %31, align 8
  %35 = getelementptr inbounds nuw i8, ptr %34, i64 64
  %36 = load ptr, ptr %35, align 8
  %37 = call noundef nonnull align 8 dereferenceable(8) ptr %36(ptr noundef nonnull align 8 dereferenceable(8) %31, i64 noundef %33) #16
  %38 = load ptr, ptr %37, align 8
  %39 = getelementptr inbounds nuw i8, ptr %38, i64 48
  %40 = load ptr, ptr %39, align 8
  %41 = call noundef nonnull align 8 dereferenceable(8) ptr %40(ptr noundef nonnull align 8 dereferenceable(8) %37, ptr noundef nonnull @.str.6) #16
  %42 = getelementptr inbounds nuw i8, ptr %0, i64 40
  %43 = load ptr, ptr %42, align 8
  %44 = load ptr, ptr %41, align 8
  %45 = getelementptr inbounds nuw i8, ptr %44, i64 136
  %46 = load ptr, ptr %45, align 8
  %47 = call noundef nonnull align 8 dereferenceable(8) ptr %46(ptr noundef nonnull align 8 dereferenceable(8) %41, ptr noundef nonnull align 8 dereferenceable(24) %43) #16
  %48 = load ptr, ptr %47, align 8
  %49 = getelementptr inbounds nuw i8, ptr %48, i64 16
  %50 = load ptr, ptr %49, align 8
  %51 = call noundef nonnull align 8 dereferenceable(8) ptr %50(ptr noundef nonnull align 8 dereferenceable(8) %47, i8 noundef signext 39) #16
  call void @_ZNSt7__cxx1112basic_stringIcSt11char_traitsIcESaIcEED1Ev(ptr noundef nonnull align 8 dereferenceable(32) %3) #16
  ret void
}